target datalayout = "e-m:e-p270:32:32-p271:32:32-p272:64:64-i64:64-i128:128-f80:128-n8:16:32:64-S128"
target triple = "x86_64-pc-linux-gnu"

%struct.Tuplestorestate = type { i32, i32, i8, i8, i8, i8, i64, i64, i64, i64, ptr, ptr, ptr, ptr, ptr, ptr, ptr, i32, i32, i32, i8, ptr, i32, i32, i32, i32, i64 }
%struct.TSReadPointer = type { i32, i8, i32, i32, i64 }

@.str.1 = private unnamed_addr constant [13 x i8] c"tuplestore.c\00", align 1
@.str.2 = private unnamed_addr constant [42 x i8] c"too late to require new tuplestore eflags\00", align 1
@__func__.tuplestore_alloc_read_pointer = private unnamed_addr constant [30 x i8] c"tuplestore_alloc_read_pointer\00", align 1

; Function Attrs: nounwind uwtable
define dso_local i32 @tuplestore_alloc_read_pointer(ptr noundef %0, i32 noundef %1) #0 {
  %3 = alloca ptr, align 8
  %4 = alloca i32, align 4
  %5 = alloca i32, align 4
  store ptr %0, ptr %3, align 8
  store i32 %1, ptr %4, align 4
  %6 = load ptr, ptr %3, align 8
  %7 = getelementptr inbounds nuw %struct.Tuplestorestate, ptr %6, i32 0, i32 0
  %8 = load i32, ptr %7, align 8
  %9 = icmp ne i32 %8, 0
  br i1 %9, label %15, label %10

10:                                               ; preds = %2
  %11 = load ptr, ptr %3, align 8
  %12 = getelementptr inbounds nuw %struct.Tuplestorestate, ptr %11, i32 0, i32 18
  %13 = load i32, ptr %12, align 4
  %14 = icmp ne i32 %13, 0
  br i1 %14, label %15, label %36

15:                                               ; preds = %10, %2
  %16 = load ptr, ptr %3, align 8
  %17 = getelementptr inbounds nuw %struct.Tuplestorestate, ptr %16, i32 0, i32 1
  %18 = load i32, ptr %17, align 4
  %19 = load i32, ptr %4, align 4
  %20 = or i32 %18, %19
  %21 = load ptr, ptr %3, align 8
  %22 = getelementptr inbounds nuw %struct.Tuplestorestate, ptr %21, i32 0, i32 1
  %23 = load i32, ptr %22, align 4
  %24 = icmp ne i32 %20, %23
  br i1 %24, label %25, label %35

25:                                               ; preds = %15
  br label %26

26:                                               ; preds = %25
  br i1 true, label %27, label %29

27:                                               ; preds = %26
  %28 = call zeroext i1 @errstart_cold(i32 noundef 21, ptr noundef null) #8
  br i1 %28, label %31, label %33

29:                                               ; preds = %26
  %30 = call zeroext i1 @errstart(i32 noundef 21, ptr noundef null)
  br i1 %30, label %31, label %33

31:                                               ; preds = %29, %27
  %32 = call i32 (ptr, ...) @errmsg_internal(ptr noundef @.str.2)
  call void @errfinish(ptr noundef @.str.1, i32 noundef 401, ptr noundef @__func__.tuplestore_alloc_read_pointer)
  br label %33

33:                                               ; preds = %31, %29, %27
  unreachable

34:                                               ; No predecessors!
  br label %35

35:                                               ; preds = %34, %15
  br label %36

36:                                               ; preds = %35, %10
  %37 = load ptr, ptr %3, align 8
  %38 = getelementptr inbounds nuw %struct.Tuplestorestate, ptr %37, i32 0, i32 23
  %39 = load i32, ptr %38, align 4
  %40 = load ptr, ptr %3, align 8
  %41 = getelementptr inbounds nuw %struct.Tuplestorestate, ptr %40, i32 0, i32 24
  %42 = load i32, ptr %41, align 8
  %43 = icmp sge i32 %39, %42
  br i1 %43, label %44, label %61

44:                                               ; preds = %36
  call void @llvm.lifetime.start.p0(i64 4, ptr %5) #7
  %45 = load ptr, ptr %3, align 8
  %46 = getelementptr inbounds nuw %struct.Tuplestorestate, ptr %45, i32 0, i32 24
  %47 = load i32, ptr %46, align 8
  %48 = mul i32 %47, 2
  store i32 %48, ptr %5, align 4
  %49 = load ptr, ptr %3, align 8
  %50 = getelementptr inbounds nuw %struct.Tuplestorestate, ptr %49, i32 0, i32 21
  %51 = load ptr, ptr %50, align 8
  %52 = load i32, ptr %5, align 4
  %53 = sext i32 %52 to i64
  %54 = mul i64 %53, 24
  %55 = call ptr @repalloc(ptr noundef %51, i64 noundef %54)
  %56 = load ptr, ptr %3, align 8
  %57 = getelementptr inbounds nuw %struct.Tuplestorestate, ptr %56, i32 0, i32 21
  store ptr %55, ptr %57, align 8
  %58 = load i32, ptr %5, align 4
  %59 = load ptr, ptr %3, align 8
  %60 = getelementptr inbounds nuw %struct.Tuplestorestate, ptr %59, i32 0, i32 24
  store i32 %58, ptr %60, align 8
  call void @llvm.lifetime.end.p0(i64 4, ptr %5) #7
  br label %61

61:                                               ; preds = %44, %36
  %62 = load ptr, ptr %3, align 8
  %63 = getelementptr inbounds nuw %struct.Tuplestorestate, ptr %62, i32 0, i32 21
  %64 = load ptr, ptr %63, align 8
  %65 = load ptr, ptr %3, align 8
  %66 = getelementptr inbounds nuw %struct.Tuplestorestate, ptr %65, i32 0, i32 23
  %67 = load i32, ptr %66, align 4
  %68 = sext i32 %67 to i64
  %69 = getelementptr inbounds %struct.TSReadPointer, ptr %64, i64 %68
  %70 = load ptr, ptr %3, align 8
  %71 = getelementptr inbounds nuw %struct.Tuplestorestate, ptr %70, i32 0, i32 21
  %72 = load ptr, ptr %71, align 8
  %73 = getelementptr inbounds %struct.TSReadPointer, ptr %72, i64 0
  call void @llvm.memcpy.p0.p0.i64(ptr align 8 %69, ptr align 8 %73, i64 24, i1 false)
  %74 = load i32, ptr %4, align 4
  %75 = load ptr, ptr %3, align 8
  %76 = getelementptr inbounds nuw %struct.Tuplestorestate, ptr %75, i32 0, i32 21
  %77 = load ptr, ptr %76, align 8
  %78 = load ptr, ptr %3, align 8
  %79 = getelementptr inbounds nuw %struct.Tuplestorestate, ptr %78, i32 0, i32 23
  %80 = load i32, ptr %79, align 4
  %81 = sext i32 %80 to i64
  %82 = getelementptr inbounds %struct.TSReadPointer, ptr %77, i64 %81
  %83 = getelementptr inbounds nuw %struct.TSReadPointer, ptr %82, i32 0, i32 0
  store i32 %74, ptr %83, align 8
  %84 = load i32, ptr %4, align 4
  %85 = load ptr, ptr %3, align 8
  %86 = getelementptr inbounds nuw %struct.Tuplestorestate, ptr %85, i32 0, i32 1
  %87 = load i32, ptr %86, align 4
  %88 = or i32 %87, %84
  store i32 %88, ptr %86, align 4
  %89 = load ptr, ptr %3, align 8
  %90 = getelementptr inbounds nuw %struct.Tuplestorestate, ptr %89, i32 0, i32 23
  %91 = load i32, ptr %90, align 4
  %92 = add i32 %91, 1
  store i32 %92, ptr %90, align 4
  ret i32 %91
}