; Function Attrs: nounwind uwtable
define dso_local i32 @tuplestore_alloc_read_pointer(ptr noundef captures(none) %0, i32 noundef %1) local_unnamed_addr #0 {
  %3 = load i32, ptr %0, align 8
  %.not = icmp eq i32 %3, 0
  br i1 %.not, label %4, label %7

4:                                                ; preds = %2
  %5 = getelementptr inbounds nuw i8, ptr %0, i64 108
  %6 = load i32, ptr %5, align 4
  %.not21 = icmp eq i32 %6, 0
  br i1 %.not21, label %14, label %7

7:                                                ; preds = %4, %2
  %8 = getelementptr inbounds nuw i8, ptr %0, i64 4
  %9 = load i32, ptr %8, align 4
  %10 = or i32 %9, %1
  %.not22 = icmp eq i32 %10, %9
  br i1 %.not22, label %14, label %11

11:                                               ; preds = %7
  %12 = tail call zeroext i1 @errstart_cold(i32 noundef 21, ptr noundef null) #10
  tail call void @llvm.assume(i1 %12)
  %13 = tail call i32 (ptr, ...) @errmsg_internal(ptr noundef nonnull @.str.2) #9
  tail call void @errfinish(ptr noundef nonnull @.str.1, i32 noundef 401, ptr noundef nonnull @__func__.tuplestore_alloc_read_pointer) #9
  unreachable

14:                                               ; preds = %7, %4
  %15 = getelementptr inbounds nuw i8, ptr %0, i64 132
  %16 = load i32, ptr %15, align 4
  %17 = getelementptr inbounds nuw i8, ptr %0, i64 136
  %18 = load i32, ptr %17, align 8
  %.not23 = icmp slt i32 %16, %18
  br i1 %.not23, label %._crit_edge, label %19

._crit_edge:                                      ; preds = %14
  %.phi.trans.insert = getelementptr inbounds nuw i8, ptr %0, i64 120
  %.pre = load ptr, ptr %.phi.trans.insert, align 8
  br label %26

19:                                               ; preds = %14
  %20 = shl i32 %18, 1
  %21 = getelementptr inbounds nuw i8, ptr %0, i64 120
  %22 = load ptr, ptr %21, align 8
  %23 = sext i32 %20 to i64
  %24 = mul nsw i64 %23, 24
  %25 = tail call ptr @repalloc(ptr noundef %22, i64 noundef %24) #9
  store ptr %25, ptr %21, align 8
  store i32 %20, ptr %17, align 8
  %.pre24 = load i32, ptr %15, align 4
  br label %26

26:                                               ; preds = %._crit_edge, %19
  %27 = phi i32 [ %16, %._crit_edge ], [ %.pre24, %19 ]
  %28 = phi ptr [ %.pre, %._crit_edge ], [ %25, %19 ]
  %29 = getelementptr inbounds nuw i8, ptr %0, i64 120
  %30 = sext i32 %27 to i64
  %31 = getelementptr inbounds %struct.TSReadPointer, ptr %28, i64 %30
  tail call void @llvm.memcpy.p0.p0.i64(ptr noundef nonnull align 8 dereferenceable(24) %31, ptr noundef nonnull align 8 dereferenceable(24) %28, i64 24, i1 false)
  %32 = load ptr, ptr %29, align 8
  %33 = load i32, ptr %15, align 4
  %34 = sext i32 %33 to i64
  %35 = getelementptr inbounds %struct.TSReadPointer, ptr %32, i64 %34
  store i32 %1, ptr %35, align 8
  %36 = getelementptr inbounds nuw i8, ptr %0, i64 4
  %37 = load i32, ptr %36, align 4
  %38 = or i32 %37, %1
  store i32 %38, ptr %36, align 4
  %39 = load i32, ptr %15, align 4
  %40 = add i32 %39, 1
  store i32 %40, ptr %15, align 4
  ret i32 %39
}